target datalayout = "e-m:e-p270:32:32-p271:32:32-p272:64:64-i64:64-i128:128-f80:128-n8:16:32:64-S128"
target triple = "x86_64-pc-linux-gnu"

%"class.icu_77::MaybeStackArray" = type <{ ptr, i32, i8, [40 x i8], [3 x i8] }>
%"class.std::basic_string_view" = type { i64, ptr }
%"class.icu_77::CharString" = type { %"class.icu_77::MaybeStackArray", i32, [4 x i8] }

@_ZN6icu_7715MaybeStackArrayIcLi40EEC1Ev = weak_odr unnamed_addr alias void (ptr), ptr @_ZN6icu_7715MaybeStackArrayIcLi40EEC2Ev
@_ZN6icu_7715MaybeStackArrayIcLi40EED1Ev = weak_odr unnamed_addr alias void (ptr), ptr @_ZN6icu_7715MaybeStackArrayIcLi40EED2Ev

; Function Attrs: inlinehint mustprogress nounwind uwtable
define internal noundef zeroext i1 @_ZN12_GLOBAL__N_112UPRV_ISDIGITEc(i8 noundef signext %0) #2 {
  %2 = alloca i8, align 1
  store i8 %0, ptr %2, align 1, !tbaa !25
  %3 = load i8, ptr %2, align 1, !tbaa !25
  %4 = sext i8 %3 to i32
  %5 = icmp sge i32 %4, 48
  br i1 %5, label %6, label %10

6:                                                ; preds = %1
  %7 = load i8, ptr %2, align 1, !tbaa !25
  %8 = sext i8 %7 to i32
  %9 = icmp sle i32 %8, 57
  br label %10

10:                                               ; preds = %6, %1
  %11 = phi i1 [ false, %1 ], [ %9, %6 ]
  ret i1 %11
}

; Function Attrs: mustprogress nounwind uwtable
define weak_odr noundef nonnull align 1 dereferenceable(1) ptr @_ZN6icu_7715MaybeStackArrayIcLi40EEixEl(ptr noundef nonnull align 8 dereferenceable(53) %0, i64 noundef %1) #0 comdat align 2 {
  %3 = alloca ptr, align 8
  %4 = alloca i64, align 8
  store ptr %0, ptr %3, align 8, !tbaa !3
  store i64 %1, ptr %4, align 8, !tbaa !18
  %5 = load ptr, ptr %3, align 8
  %6 = getelementptr inbounds nuw %"class.icu_77::MaybeStackArray", ptr %5, i32 0, i32 0
  %7 = load ptr, ptr %6, align 8, !tbaa !8
  %8 = load i64, ptr %4, align 8, !tbaa !18
  %9 = getelementptr inbounds i8, ptr %7, i64 %8
  ret ptr %9
}

; Function Attrs: mustprogress nounwind uwtable
define linkonce_odr void @_ZN6icu_7710CharStringD2Ev(ptr noundef nonnull align 8 dereferenceable(60) %0) unnamed_addr #0 comdat align 2 {
  %2 = alloca ptr, align 8
  store ptr %0, ptr %2, align 8, !tbaa !62
  %3 = load ptr, ptr %2, align 8
  %4 = getelementptr inbounds nuw %"class.icu_77::CharString", ptr %3, i32 0, i32 0
  call void @_ZN6icu_7715MaybeStackArrayIcLi40EED1Ev(ptr noundef nonnull align 8 dereferenceable(53) %4) #11
  ret void
}

; Function Attrs: mustprogress nounwind uwtable
define linkonce_odr noundef signext i8 @_ZNK6icu_7710CharString7isEmptyEv(ptr noundef nonnull align 8 dereferenceable(60) %0) #0 comdat align 2 {
  %2 = alloca ptr, align 8
  store ptr %0, ptr %2, align 8, !tbaa !62
  %3 = load ptr, ptr %2, align 8
  %4 = getelementptr inbounds nuw %"class.icu_77::CharString", ptr %3, i32 0, i32 1
  %5 = load i32, ptr %4, align 8, !tbaa !64
  %6 = icmp eq i32 %5, 0
  %7 = zext i1 %6 to i8
  ret i8 %7
}

; Function Attrs: inlinehint mustprogress uwtable
define internal noundef zeroext i1 @_ZN12_GLOBAL__N_115UPRV_ISALPHANUMEc(i8 noundef signext %0) #3 {
  %2 = alloca i8, align 1
  store i8 %0, ptr %2, align 1, !tbaa !25
  %3 = load i8, ptr %2, align 1, !tbaa !25
  %4 = call signext i8 @uprv_isASCIILetter_77(i8 noundef signext %3)
  %5 = icmp ne i8 %4, 0
  br i1 %5, label %9, label %6

6:                                                ; preds = %1
  %7 = load i8, ptr %2, align 1, !tbaa !25
  %8 = call noundef zeroext i1 @_ZN12_GLOBAL__N_112UPRV_ISDIGITEc(i8 noundef signext %7)
  br label %9

9:                                                ; preds = %6, %1
  %10 = phi i1 [ true, %1 ], [ %8, %6 ]
  ret i1 %10
}

; Function Attrs: mustprogress nounwind uwtable
define linkonce_odr noundef ptr @_ZNKSt17basic_string_viewIcSt11char_traitsIcEE3endEv(ptr noundef nonnull align 8 dereferenceable(16) %0) #0 comdat align 2 {
  %2 = alloca ptr, align 8
  store ptr %0, ptr %2, align 8, !tbaa !23
  %3 = load ptr, ptr %2, align 8
  %4 = getelementptr inbounds nuw %"class.std::basic_string_view", ptr %3, i32 0, i32 1
  %5 = load ptr, ptr %4, align 8, !tbaa !28
  %6 = getelementptr inbounds nuw %"class.std::basic_string_view", ptr %3, i32 0, i32 0
  %7 = load i64, ptr %6, align 8, !tbaa !26
  %8 = getelementptr inbounds nuw i8, ptr %5, i64 %7
  ret ptr %8
}

; Function Attrs: mustprogress nounwind uwtable
define linkonce_odr noundef ptr @_ZNKSt17basic_string_viewIcSt11char_traitsIcEE5beginEv(ptr noundef nonnull align 8 dereferenceable(16) %0) #0 comdat align 2 {
  %2 = alloca ptr, align 8
  store ptr %0, ptr %2, align 8, !tbaa !23
  %3 = load ptr, ptr %2, align 8
  %4 = getelementptr inbounds nuw %"class.std::basic_string_view", ptr %3, i32 0, i32 1
  %5 = load ptr, ptr %4, align 8, !tbaa !28
  ret ptr %5
}

; Function Attrs: mustprogress uwtable
define linkonce_odr void @_ZN6icu_7710CharStringC2Ev(ptr noundef nonnull align 8 dereferenceable(60) %0) unnamed_addr #1 comdat align 2 {
  %2 = alloca ptr, align 8
  store ptr %0, ptr %2, align 8, !tbaa !62
  %3 = load ptr, ptr %2, align 8
  %4 = getelementptr inbounds nuw %"class.icu_77::CharString", ptr %3, i32 0, i32 0
  call void @_ZN6icu_7715MaybeStackArrayIcLi40EEC1Ev(ptr noundef nonnull align 8 dereferenceable(53) %4)
  %5 = getelementptr inbounds nuw %"class.icu_77::CharString", ptr %3, i32 0, i32 1
  store i32 0, ptr %5, align 8, !tbaa !64
  %6 = getelementptr inbounds nuw %"class.icu_77::CharString", ptr %3, i32 0, i32 0
  %7 = call noundef nonnull align 1 dereferenceable(1) ptr @_ZN6icu_7715MaybeStackArrayIcLi40EEixEl(ptr noundef nonnull align 8 dereferenceable(53) %6, i64 noundef 0)
  store i8 0, ptr %7, align 1, !tbaa !25
  ret void
}

; Function Attrs: inlinehint mustprogress nounwind uwtable
define internal noundef signext i8 @_ZL9U_FAILURE10UErrorCode(i32 noundef %0) #2 {
  %2 = alloca i32, align 4
  store i32 %0, ptr %2, align 4, !tbaa !15
  %3 = load i32, ptr %2, align 4, !tbaa !15
  %4 = icmp sgt i32 %3, 0
  %5 = zext i1 %4 to i8
  ret i8 %5
}

; Function Attrs: mustprogress uwtable
define internal void @_ZN12_GLOBAL__N_123locale_canonKeywordNameESt17basic_string_viewIcSt11char_traitsIcEER10UErrorCode(ptr dead_on_unwind noalias writable sret(%"class.icu_77::CharString") align 8 %0, i64 %1, ptr %2, ptr noundef nonnull align 4 dereferenceable(4) %3) #1 personality ptr @__gxx_personality_v0 {
  %5 = alloca ptr, align 8
  %6 = alloca %"class.std::basic_string_view", align 8
  %7 = alloca ptr, align 8
  %8 = alloca %"class.icu_77::CharString", align 8
  %9 = alloca ptr, align 8
  %10 = alloca ptr, align 8
  %11 = alloca ptr, align 8
  %12 = alloca i32, align 4
  %13 = alloca i8, align 1
  %14 = alloca ptr, align 8
  %15 = alloca i32, align 4
  store ptr %0, ptr %5, align 8
  %16 = getelementptr inbounds nuw { i64, ptr }, ptr %6, i32 0, i32 0
  store i64 %1, ptr %16, align 8
  %17 = getelementptr inbounds nuw { i64, ptr }, ptr %6, i32 0, i32 1
  store ptr %2, ptr %17, align 8
  store ptr %3, ptr %7, align 8, !tbaa !22
  %18 = load ptr, ptr %7, align 8, !tbaa !22
  %19 = load i32, ptr %18, align 4, !tbaa !15
  %20 = call noundef signext i8 @_ZL9U_FAILURE10UErrorCode(i32 noundef %19)
  %21 = icmp ne i8 %20, 0
  br i1 %21, label %22, label %23

22:                                               ; preds = %4
  call void @_ZN6icu_7710CharStringC2Ev(ptr noundef nonnull align 8 dereferenceable(60) %0)
  br label %75

23:                                               ; preds = %4
  call void @llvm.lifetime.start.p0(i64 64, ptr %8) #11
  call void @_ZN6icu_7710CharStringC2Ev(ptr noundef nonnull align 8 dereferenceable(60) %8)
  call void @llvm.lifetime.start.p0(i64 8, ptr %9) #11
  store ptr %6, ptr %9, align 8, !tbaa !23
  call void @llvm.lifetime.start.p0(i64 8, ptr %10) #11
  %24 = load ptr, ptr %9, align 8, !tbaa !23
  %25 = call noundef ptr @_ZNKSt17basic_string_viewIcSt11char_traitsIcEE5beginEv(ptr noundef nonnull align 8 dereferenceable(16) %24) #11
  store ptr %25, ptr %10, align 8, !tbaa !17
  call void @llvm.lifetime.start.p0(i64 8, ptr %11) #11
  %26 = load ptr, ptr %9, align 8, !tbaa !23
  %27 = call noundef ptr @_ZNKSt17basic_string_viewIcSt11char_traitsIcEE3endEv(ptr noundef nonnull align 8 dereferenceable(16) %26) #11
  store ptr %27, ptr %11, align 8, !tbaa !17
  br label %28

28:                                               ; preds = %56, %23
  %29 = load ptr, ptr %10, align 8, !tbaa !17
  %30 = load ptr, ptr %11, align 8, !tbaa !17
  %31 = icmp ne ptr %29, %30
  br i1 %31, label %33, label %32

32:                                               ; preds = %28
  store i32 2, ptr %12, align 4
  br label %59

33:                                               ; preds = %28
  call void @llvm.lifetime.start.p0(i64 1, ptr %13) #11
  %34 = load ptr, ptr %10, align 8, !tbaa !17
  %35 = load i8, ptr %34, align 1, !tbaa !25
  store i8 %35, ptr %13, align 1, !tbaa !25
  %36 = load i8, ptr %13, align 1, !tbaa !25
  %37 = invoke noundef zeroext i1 @_ZN12_GLOBAL__N_115UPRV_ISALPHANUMEc(i8 noundef signext %36)
          to label %38 unwind label %42

38:                                               ; preds = %33
  br i1 %37, label %46, label %39

39:                                               ; preds = %38
  %40 = load ptr, ptr %7, align 8, !tbaa !22
  store i32 1, ptr %40, align 4, !tbaa !15
  invoke void @_ZN6icu_7710CharStringC2Ev(ptr noundef nonnull align 8 dereferenceable(60) %0)
          to label %41 unwind label %42

41:                                               ; preds = %39
  store i32 1, ptr %12, align 4
  br label %53

42:                                               ; preds = %49, %46, %39, %33
  %43 = landingpad { ptr, i32 }
          cleanup
  %44 = extractvalue { ptr, i32 } %43, 0
  store ptr %44, ptr %14, align 8
  %45 = extractvalue { ptr, i32 } %43, 1
  store i32 %45, ptr %15, align 4
  call void @llvm.lifetime.end.p0(i64 1, ptr %13) #11
  call void @llvm.lifetime.end.p0(i64 8, ptr %11) #11
  call void @llvm.lifetime.end.p0(i64 8, ptr %10) #11
  call void @llvm.lifetime.end.p0(i64 8, ptr %9) #11
  br label %74

46:                                               ; preds = %38
  %47 = load i8, ptr %13, align 1, !tbaa !25
  %48 = invoke signext i8 @uprv_asciitolower_77(i8 noundef signext %47)
          to label %49 unwind label %42

49:                                               ; preds = %46
  %50 = load ptr, ptr %7, align 8, !tbaa !22
  %51 = invoke noundef nonnull align 8 dereferenceable(60) ptr @_ZN6icu_7710CharString6appendEcR10UErrorCode(ptr noundef nonnull align 8 dereferenceable(60) %8, i8 noundef signext %48, ptr noundef nonnull align 4 dereferenceable(4) %50)
          to label %52 unwind label %42

52:                                               ; preds = %49
  store i32 0, ptr %12, align 4
  br label %53

53:                                               ; preds = %52, %41
  call void @llvm.lifetime.end.p0(i64 1, ptr %13) #11
  %54 = load i32, ptr %12, align 4
  switch i32 %54, label %59 [
    i32 0, label %55
  ]

55:                                               ; preds = %53
  br label %56

56:                                               ; preds = %55
  %57 = load ptr, ptr %10, align 8, !tbaa !17
  %58 = getelementptr inbounds nuw i8, ptr %57, i32 1
  store ptr %58, ptr %10, align 8, !tbaa !17
  br label %28

59:                                               ; preds = %53, %32
  call void @llvm.lifetime.end.p0(i64 8, ptr %11) #11
  call void @llvm.lifetime.end.p0(i64 8, ptr %10) #11
  call void @llvm.lifetime.end.p0(i64 8, ptr %9) #11
  %60 = load i32, ptr %12, align 4
  switch i32 %60, label %73 [
    i32 2, label %61
  ]

61:                                               ; preds = %59
  %62 = invoke noundef signext i8 @_ZNK6icu_7710CharString7isEmptyEv(ptr noundef nonnull align 8 dereferenceable(60) %8)
          to label %63 unwind label %68

63:                                               ; preds = %61
  %64 = icmp ne i8 %62, 0
  br i1 %64, label %65, label %72

65:                                               ; preds = %63
  %66 = load ptr, ptr %7, align 8, !tbaa !22
  store i32 1, ptr %66, align 4, !tbaa !15
  invoke void @_ZN6icu_7710CharStringC2Ev(ptr noundef nonnull align 8 dereferenceable(60) %0)
          to label %67 unwind label %68

67:                                               ; preds = %65
  store i32 1, ptr %12, align 4
  br label %73

68:                                               ; preds = %65, %61
  %69 = landingpad { ptr, i32 }
          cleanup
  %70 = extractvalue { ptr, i32 } %69, 0
  store ptr %70, ptr %14, align 8
  %71 = extractvalue { ptr, i32 } %69, 1
  store i32 %71, ptr %15, align 4
  br label %74

72:                                               ; preds = %63
  call void @_ZN6icu_7710CharStringC1EOS0_(ptr noundef nonnull align 8 dereferenceable(60) %0, ptr noundef nonnull align 8 dereferenceable(60) %8) #11
  store i32 1, ptr %12, align 4
  br label %73

73:                                               ; preds = %72, %67, %59
  call void @_ZN6icu_7710CharStringD2Ev(ptr noundef nonnull align 8 dereferenceable(60) %8) #11
  call void @llvm.lifetime.end.p0(i64 64, ptr %8) #11
  br label %75

74:                                               ; preds = %68, %42
  call void @_ZN6icu_7710CharStringD2Ev(ptr noundef nonnull align 8 dereferenceable(60) %8) #11
  call void @llvm.lifetime.end.p0(i64 64, ptr %8) #11
  br label %76

75:                                               ; preds = %73, %22
  ret void

76:                                               ; preds = %74
  %77 = load ptr, ptr %14, align 8
  %78 = load i32, ptr %15, align 4
  %79 = insertvalue { ptr, i32 } poison, ptr %77, 0
  %80 = insertvalue { ptr, i32 } %79, i32 %78, 1
  resume { ptr, i32 } %80
}