; Function Attrs: mustprogress uwtable
define internal fastcc void @_ZN12_GLOBAL__N_123locale_canonKeywordNameESt17basic_string_viewIcSt11char_traitsIcEER10UErrorCode(ptr dead_on_unwind noalias nonnull writable align 8 %0, i64 %1, ptr readonly %2, ptr noundef nonnull align 4 dereferenceable(4) %3) unnamed_addr #1 personality ptr @__gxx_personality_v0 {
  %5 = alloca %"class.icu_77::CharString", align 8
  %6 = load i32, ptr %3, align 4, !tbaa !13
  %7 = icmp slt i32 %6, 1
  br i1 %7, label %11, label %8

8:                                                ; preds = %4
  tail call void @_ZN6icu_7715MaybeStackArrayIcLi40EEC1Ev(ptr noundef nonnull align 8 dereferenceable(60) %0)
  %9 = getelementptr inbounds nuw i8, ptr %0, i64 56
  store i32 0, ptr %9, align 8, !tbaa !18
  %10 = load ptr, ptr %0, align 8, !tbaa !3
  store i8 0, ptr %10, align 1, !tbaa !20
  br label %40

11:                                               ; preds = %4
  call void @llvm.lifetime.start.p0(i64 64, ptr nonnull %5) #20
  call void @_ZN6icu_7715MaybeStackArrayIcLi40EEC1Ev(ptr noundef nonnull align 8 dereferenceable(60) %5)
  %12 = getelementptr inbounds nuw i8, ptr %5, i64 56
  store i32 0, ptr %12, align 8, !tbaa !18
  %13 = load ptr, ptr %5, align 8, !tbaa !3
  store i8 0, ptr %13, align 1, !tbaa !20
  %14 = getelementptr inbounds nuw i8, ptr %2, i64 %1
  %.not1924 = icmp samesign eq i64 %1, 0
  br i1 %.not1924, label %.critedge, label %.lr.ph

.lr.ph:                                           ; preds = %11, %26
  %.01725 = phi ptr [ %27, %26 ], [ %2, %11 ]
  %15 = load i8, ptr %.01725, align 1, !tbaa !20
  %16 = invoke signext i8 @uprv_isASCIILetter_77(i8 noundef signext %15)
          to label %17 unwind label %.loopexit

17:                                               ; preds = %.lr.ph
  %.not.i = icmp ne i8 %16, 0
  %18 = add i8 %15, -48
  %19 = icmp ult i8 %18, 10
  %20 = or i1 %19, %.not.i
  br i1 %20, label %22, label %21

21:                                               ; preds = %17
  store i32 1, ptr %3, align 4, !tbaa !13
  invoke void @_ZN6icu_7715MaybeStackArrayIcLi40EEC1Ev(ptr noundef nonnull align 8 dereferenceable(60) %0)
          to label %28 unwind label %.loopexit.split-lp

.loopexit:                                        ; preds = %22, %24, %.lr.ph
  %lpad.loopexit = landingpad { ptr, i32 }
          cleanup
  br label %39

.loopexit.split-lp:                               ; preds = %21
  %lpad.loopexit.split-lp = landingpad { ptr, i32 }
          cleanup
  br label %39

22:                                               ; preds = %17
  %23 = invoke signext i8 @uprv_asciitolower_77(i8 noundef signext %15)
          to label %24 unwind label %.loopexit

24:                                               ; preds = %22
  %25 = invoke noundef nonnull align 8 dereferenceable(60) ptr @_ZN6icu_7710CharString6appendEcR10UErrorCode(ptr noundef nonnull align 8 dereferenceable(60) %5, i8 noundef signext %23, ptr noundef nonnull align 4 dereferenceable(4) %3)
          to label %26 unwind label %.loopexit

26:                                               ; preds = %24
  %27 = getelementptr inbounds nuw i8, ptr %.01725, i64 1
  %.not19 = icmp eq ptr %27, %14
  br i1 %.not19, label %.critedge, label %.lr.ph

28:                                               ; preds = %21
  %29 = getelementptr inbounds nuw i8, ptr %0, i64 56
  store i32 0, ptr %29, align 8, !tbaa !18
  %30 = load ptr, ptr %0, align 8, !tbaa !3
  store i8 0, ptr %30, align 1, !tbaa !20
  br label %38

.critedge:                                        ; preds = %26, %11
  %31 = load i32, ptr %12, align 8, !tbaa !18
  %.not = icmp eq i32 %31, 0
  br i1 %.not, label %32, label %37

32:                                               ; preds = %.critedge
  store i32 1, ptr %3, align 4, !tbaa !13
  invoke void @_ZN6icu_7715MaybeStackArrayIcLi40EEC1Ev(ptr noundef nonnull align 8 dereferenceable(60) %0)
          to label %_ZN6icu_7710CharStringC2Ev.exit22 unwind label %35

_ZN6icu_7710CharStringC2Ev.exit22:                ; preds = %32
  %33 = getelementptr inbounds nuw i8, ptr %0, i64 56
  store i32 0, ptr %33, align 8, !tbaa !18
  %34 = load ptr, ptr %0, align 8, !tbaa !3
  store i8 0, ptr %34, align 1, !tbaa !20
  br label %38

35:                                               ; preds = %32
  %36 = landingpad { ptr, i32 }
          cleanup
  br label %39

37:                                               ; preds = %.critedge
  call void @_ZN6icu_7710CharStringC1EOS0_(ptr noundef nonnull align 8 dereferenceable(60) %0, ptr noundef nonnull align 8 dereferenceable(60) %5) #20
  br label %38

38:                                               ; preds = %28, %_ZN6icu_7710CharStringC2Ev.exit22, %37
  call void @_ZN6icu_7715MaybeStackArrayIcLi40EED1Ev(ptr noundef nonnull align 8 dereferenceable(60) %5) #20
  call void @llvm.lifetime.end.p0(i64 64, ptr nonnull %5) #20
  br label %40

39:                                               ; preds = %.loopexit, %.loopexit.split-lp, %35
  %.pn = phi { ptr, i32 } [ %36, %35 ], [ %lpad.loopexit, %.loopexit ], [ %lpad.loopexit.split-lp, %.loopexit.split-lp ]
  call void @_ZN6icu_7715MaybeStackArrayIcLi40EED1Ev(ptr noundef nonnull align 8 dereferenceable(60) %5) #20
  call void @llvm.lifetime.end.p0(i64 64, ptr nonnull %5) #20
  resume { ptr, i32 } %.pn

40:                                               ; preds = %38, %8
  ret void
}